; Function Attrs: mustprogress uwtable
define void @_ZN2cv4UMat7releaseEv(ptr noundef nonnull align 8 captures(none) dereferenceable(80) %0) local_unnamed_addr #4 align 2 {
  %2 = getelementptr inbounds nuw i8, ptr %0, i64 32
  %3 = load ptr, ptr %2, align 8, !tbaa !57
  %.not = icmp eq ptr %3, null
  br i1 %.not, label %15, label %4

4:                                                ; preds = %1
  %5 = getelementptr inbounds nuw i8, ptr %3, i64 16
  %6 = atomicrmw add ptr %5, i32 -1 acq_rel, align 8
  %7 = icmp eq i32 %6, 1
  br i1 %7, label %8, label %15

8:                                                ; preds = %4
  %9 = load ptr, ptr %2, align 8, !tbaa !57
  store ptr null, ptr %2, align 8, !tbaa !57
  %10 = getelementptr inbounds nuw i8, ptr %9, i64 8
  %11 = load ptr, ptr %10, align 8, !tbaa !3
  %12 = load ptr, ptr %11, align 8, !tbaa !21
  %13 = getelementptr inbounds nuw i8, ptr %12, i64 32
  %14 = load ptr, ptr %13, align 8
  tail call void %14(ptr noundef nonnull align 8 dereferenceable(8) %11, ptr noundef %9)
  br label %15

15:                                               ; preds = %8, %4, %1
  %16 = getelementptr inbounds nuw i8, ptr %0, i64 4
  %17 = load i32, ptr %16, align 4, !tbaa !58
  %18 = icmp sgt i32 %17, 0
  br i1 %18, label %.lr.ph, label %._crit_edge

.lr.ph:                                           ; preds = %15
  %19 = getelementptr inbounds nuw i8, ptr %0, i64 48
  %20 = load ptr, ptr %19, align 8, !tbaa !61
  br label %21

._crit_edge:                                      ; preds = %21, %15
  store ptr null, ptr %2, align 8, !tbaa !57
  ret void

21:                                               ; preds = %.lr.ph, %21
  %indvars.iv = phi i64 [ 0, %.lr.ph ], [ %indvars.iv.next, %21 ]
  %22 = getelementptr inbounds nuw i32, ptr %20, i64 %indvars.iv
  store i32 0, ptr %22, align 4, !tbaa !28
  %indvars.iv.next = add nuw nsw i64 %indvars.iv, 1
  %23 = load i32, ptr %16, align 4, !tbaa !58
  %24 = sext i32 %23 to i64
  %25 = icmp slt i64 %indvars.iv.next, %24
  br i1 %25, label %21, label %._crit_edge, !llvm.loop !62
}